ARM GAS  C:\Users\meh\AppData\Local\Temp\ccIxgTCX.s 			page 1


   1              		.syntax unified
   2              		.cpu cortex-m3
   3              		.fpu softvfp
   4              		.eabi_attribute 20, 1
   5              		.eabi_attribute 21, 1
   6              		.eabi_attribute 23, 3
   7              		.eabi_attribute 24, 1
   8              		.eabi_attribute 25, 1
   9              		.eabi_attribute 26, 1
  10              		.eabi_attribute 30, 6
  11              		.eabi_attribute 18, 4
  12              		.thumb
  13              		.file	"LCD_BarGraph.c"
  20 0000 A2000000 		.text
  20      02006500 
  20      00000201 
  20      FB0E0D00 
  20      01010101 
  21              	.Ltext0:
  22              		.cfi_sections	.debug_frame
  23              		.global	LCD_customFonts
  24              		.section	.rodata
  25              		.align	2
  26              		.type	LCD_customFonts, %object
  27              		.size	LCD_customFonts, 64
  28              	LCD_customFonts:
  29 0000 00       		.byte	0
  30 0001 00       		.byte	0
  31 0002 00       		.byte	0
  32 0003 00       		.byte	0
  33 0004 00       		.byte	0
  34 0005 00       		.byte	0
  35 0006 00       		.byte	0
  36 0007 00       		.byte	0
  37 0008 10       		.byte	16
  38 0009 10       		.byte	16
  39 000a 10       		.byte	16
  40 000b 10       		.byte	16
  41 000c 10       		.byte	16
  42 000d 10       		.byte	16
  43 000e 10       		.byte	16
  44 000f 10       		.byte	16
  45 0010 18       		.byte	24
  46 0011 18       		.byte	24
  47 0012 18       		.byte	24
  48 0013 18       		.byte	24
  49 0014 18       		.byte	24
  50 0015 18       		.byte	24
  51 0016 18       		.byte	24
  52 0017 18       		.byte	24
  53 0018 1C       		.byte	28
ARM GAS  C:\Users\meh\AppData\Local\Temp\ccIxgTCX.s 			page 2


  54 0019 1C       		.byte	28
  55 001a 1C       		.byte	28
  56 001b 1C       		.byte	28
  57 001c 1C       		.byte	28
  58 001d 1C       		.byte	28
  59 001e 1C       		.byte	28
  60 001f 1C       		.byte	28
  61 0020 1E       		.byte	30
  62 0021 1E       		.byte	30
  63 0022 1E       		.byte	30
  64 0023 1E       		.byte	30
  65 0024 1E       		.byte	30
  66 0025 1E       		.byte	30
  67 0026 1E       		.byte	30
  68 0027 1E       		.byte	30
  69 0028 1F       		.byte	31
  70 0029 1F       		.byte	31
  71 002a 1F       		.byte	31
  72 002b 1F       		.byte	31
  73 002c 1F       		.byte	31
  74 002d 1F       		.byte	31
  75 002e 1F       		.byte	31
  76 002f 1F       		.byte	31
  77 0030 00       		.byte	0
  78 0031 00       		.byte	0
  79 0032 00       		.byte	0
  80 0033 00       		.byte	0
  81 0034 00       		.byte	0
  82 0035 00       		.byte	0
  83 0036 00       		.byte	0
  84 0037 00       		.byte	0
  85 0038 00       		.byte	0
  86 0039 00       		.byte	0
  87 003a 00       		.byte	0
  88 003b 00       		.byte	0
  89 003c 00       		.byte	0
  90 003d 00       		.byte	0
  91 003e 00       		.byte	0
  92 003f 00       		.byte	0
  93              		.section	.text.LCD_LoadCustomFonts,"ax",%progbits
  94              		.align	2
  95              		.global	LCD_LoadCustomFonts
  96              		.thumb
  97              		.thumb_func
  98              		.type	LCD_LoadCustomFonts, %function
  99              	LCD_LoadCustomFonts:
 100              	.LFB0:
 101              		.file 1 ".\\Generated_Source\\PSoC5\\LCD_BarGraph.c"
   1:.\Generated_Source\PSoC5/LCD_BarGraph.c **** /*******************************************************************************
   2:.\Generated_Source\PSoC5/LCD_BarGraph.c **** * File Name: LCD_BarGraph.c
   3:.\Generated_Source\PSoC5/LCD_BarGraph.c **** * Version 1.1
   4:.\Generated_Source\PSoC5/LCD_BarGraph.c **** *
   5:.\Generated_Source\PSoC5/LCD_BarGraph.c **** * Description:
   6:.\Generated_Source\PSoC5/LCD_BarGraph.c **** *  This file provides the custom character data and API for creating and using
   7:.\Generated_Source\PSoC5/LCD_BarGraph.c **** *  bar graphs with the Character LCD component.
   8:.\Generated_Source\PSoC5/LCD_BarGraph.c **** *
   9:.\Generated_Source\PSoC5/LCD_BarGraph.c **** * Note:
ARM GAS  C:\Users\meh\AppData\Local\Temp\ccIxgTCX.s 			page 3


  10:.\Generated_Source\PSoC5/LCD_BarGraph.c **** *
  11:.\Generated_Source\PSoC5/LCD_BarGraph.c **** ********************************************************************************
  12:.\Generated_Source\PSoC5/LCD_BarGraph.c **** * Copyright 2008-2012, Cypress Semiconductor Corporation.  All rights reserved.
  13:.\Generated_Source\PSoC5/LCD_BarGraph.c **** * You may use this file only in accordance with the license, terms, conditions,
  14:.\Generated_Source\PSoC5/LCD_BarGraph.c **** * disclaimers, and limitations in the end user license agreement accompanying
  15:.\Generated_Source\PSoC5/LCD_BarGraph.c **** * the software package with which this file was provided.
  16:.\Generated_Source\PSoC5/LCD_BarGraph.c **** *******************************************************************************/
  17:.\Generated_Source\PSoC5/LCD_BarGraph.c **** 
  18:.\Generated_Source\PSoC5/LCD_BarGraph.c **** #include "LCD.h"
  19:.\Generated_Source\PSoC5/LCD_BarGraph.c **** 
  20:.\Generated_Source\PSoC5/LCD_BarGraph.c **** 
  21:.\Generated_Source\PSoC5/LCD_BarGraph.c **** uint8 const CYCODE LCD_customFonts[] = \
  22:.\Generated_Source\PSoC5/LCD_BarGraph.c **** {
  23:.\Generated_Source\PSoC5/LCD_BarGraph.c ****     /* Character LCD_CUSTOM_0   */
  24:.\Generated_Source\PSoC5/LCD_BarGraph.c ****     0x00u,    0x00u,    0x00u,    0x00u,    0x00u,    0x00u,    0x00u,    0x00u, \
  25:.\Generated_Source\PSoC5/LCD_BarGraph.c ****     /* Character LCD_CUSTOM_1   */
  26:.\Generated_Source\PSoC5/LCD_BarGraph.c ****     0x10u,    0x10u,    0x10u,    0x10u,    0x10u,    0x10u,    0x10u,    0x10u, \
  27:.\Generated_Source\PSoC5/LCD_BarGraph.c ****     /* Character LCD_CUSTOM_2   */
  28:.\Generated_Source\PSoC5/LCD_BarGraph.c ****     0x18u,    0x18u,    0x18u,    0x18u,    0x18u,    0x18u,    0x18u,    0x18u, \
  29:.\Generated_Source\PSoC5/LCD_BarGraph.c ****     /* Character LCD_CUSTOM_3   */
  30:.\Generated_Source\PSoC5/LCD_BarGraph.c ****     0x1Cu,    0x1Cu,    0x1Cu,    0x1Cu,    0x1Cu,    0x1Cu,    0x1Cu,    0x1Cu, \
  31:.\Generated_Source\PSoC5/LCD_BarGraph.c ****     /* Character LCD_CUSTOM_4   */
  32:.\Generated_Source\PSoC5/LCD_BarGraph.c ****     0x1Eu,    0x1Eu,    0x1Eu,    0x1Eu,    0x1Eu,    0x1Eu,    0x1Eu,    0x1Eu, \
  33:.\Generated_Source\PSoC5/LCD_BarGraph.c ****     /* Character LCD_CUSTOM_5   */
  34:.\Generated_Source\PSoC5/LCD_BarGraph.c ****     0x1Fu,    0x1Fu,    0x1Fu,    0x1Fu,    0x1Fu,    0x1Fu,    0x1Fu,    0x1Fu, \
  35:.\Generated_Source\PSoC5/LCD_BarGraph.c ****     /* Character LCD_CUSTOM_6   */
  36:.\Generated_Source\PSoC5/LCD_BarGraph.c ****     0x00u,    0x00u,    0x00u,    0x00u,    0x00u,    0x00u,    0x00u,    0x00u, \
  37:.\Generated_Source\PSoC5/LCD_BarGraph.c ****     /* Character LCD_CUSTOM_7   */
  38:.\Generated_Source\PSoC5/LCD_BarGraph.c ****     0x00u,    0x00u,    0x00u,    0x00u,    0x00u,    0x00u,    0x00u,    0x00u \
  39:.\Generated_Source\PSoC5/LCD_BarGraph.c **** };
  40:.\Generated_Source\PSoC5/LCD_BarGraph.c **** 
  41:.\Generated_Source\PSoC5/LCD_BarGraph.c **** 
  42:.\Generated_Source\PSoC5/LCD_BarGraph.c **** /*******************************************************************************
  43:.\Generated_Source\PSoC5/LCD_BarGraph.c **** * Function Name: LCD_LoadCustomFonts
  44:.\Generated_Source\PSoC5/LCD_BarGraph.c **** ********************************************************************************
  45:.\Generated_Source\PSoC5/LCD_BarGraph.c **** *
  46:.\Generated_Source\PSoC5/LCD_BarGraph.c **** * Summary:
  47:.\Generated_Source\PSoC5/LCD_BarGraph.c **** *  Loads 8 custom font characters into the LCD Module for use.  Cannot use
  48:.\Generated_Source\PSoC5/LCD_BarGraph.c **** *  characters from two different font sets at once, but font sets can be
  49:.\Generated_Source\PSoC5/LCD_BarGraph.c **** *  switched out during runtime.
  50:.\Generated_Source\PSoC5/LCD_BarGraph.c **** *
  51:.\Generated_Source\PSoC5/LCD_BarGraph.c **** * Parameters:
  52:.\Generated_Source\PSoC5/LCD_BarGraph.c **** *  customData:  pointer to a constant array of 64 bytes representing 8 custom
  53:.\Generated_Source\PSoC5/LCD_BarGraph.c **** *               font characters.
  54:.\Generated_Source\PSoC5/LCD_BarGraph.c **** * Return:
  55:.\Generated_Source\PSoC5/LCD_BarGraph.c **** *  None.
  56:.\Generated_Source\PSoC5/LCD_BarGraph.c **** *
  57:.\Generated_Source\PSoC5/LCD_BarGraph.c **** * Theory:
  58:.\Generated_Source\PSoC5/LCD_BarGraph.c **** *  Prior to using this function user need to import the pointer to custom
  59:.\Generated_Source\PSoC5/LCD_BarGraph.c **** *  font array to your project by writting the following in the source code file
  60:.\Generated_Source\PSoC5/LCD_BarGraph.c **** *  where custom font will be used:
  61:.\Generated_Source\PSoC5/LCD_BarGraph.c **** *       extern uint8 const CYCODE LCD_Char_customFonts[];
  62:.\Generated_Source\PSoC5/LCD_BarGraph.c **** *  This function is not automatically called by the Start() routine and must be
  63:.\Generated_Source\PSoC5/LCD_BarGraph.c **** *  called manually by the user.
  64:.\Generated_Source\PSoC5/LCD_BarGraph.c **** *******************************************************************************/
  65:.\Generated_Source\PSoC5/LCD_BarGraph.c **** void LCD_LoadCustomFonts(uint8 const customData[]) 
  66:.\Generated_Source\PSoC5/LCD_BarGraph.c **** {
ARM GAS  C:\Users\meh\AppData\Local\Temp\ccIxgTCX.s 			page 4


 102              		.loc 1 66 0
 103              		.cfi_startproc
 104              		@ args = 0, pretend = 0, frame = 16
 105              		@ frame_needed = 1, uses_anonymous_args = 0
 106 0000 80B5     		push	{r7, lr}
 107              	.LCFI0:
 108              		.cfi_def_cfa_offset 8
 109 0002 84B0     		sub	sp, sp, #16
 110              	.LCFI1:
 111              		.cfi_def_cfa_offset 24
 112 0004 00AF     		add	r7, sp, #0
 113              		.cfi_offset 14, -4
 114              		.cfi_offset 7, -8
 115              	.LCFI2:
 116              		.cfi_def_cfa_register 7
 117 0006 7860     		str	r0, [r7, #4]
  67:.\Generated_Source\PSoC5/LCD_BarGraph.c ****     uint8 indexU8;
  68:.\Generated_Source\PSoC5/LCD_BarGraph.c **** 
  69:.\Generated_Source\PSoC5/LCD_BarGraph.c ****     LCD_IsReady();
 118              		.loc 1 69 0
 119 0008 FFF7FEFF 		bl	LCD_IsReady
  70:.\Generated_Source\PSoC5/LCD_BarGraph.c ****     /* Set starting address in the LCD Module */
  71:.\Generated_Source\PSoC5/LCD_BarGraph.c ****     /* Optionally: Read the current address to restore at a later time */
  72:.\Generated_Source\PSoC5/LCD_BarGraph.c ****     LCD_WriteControl(LCD_CGRAM_0);
 120              		.loc 1 72 0
 121 000c 4FF04000 		mov	r0, #64
 122 0010 FFF7FEFF 		bl	LCD_WriteControl
  73:.\Generated_Source\PSoC5/LCD_BarGraph.c **** 
  74:.\Generated_Source\PSoC5/LCD_BarGraph.c ****     /* Load in the 64 bytes of CustomChar Data */
  75:.\Generated_Source\PSoC5/LCD_BarGraph.c ****     for(indexU8 = 0u; indexU8 < LCD_CUSTOM_CHAR_SET_LEN; indexU8++)
 123              		.loc 1 75 0
 124 0014 4FF00003 		mov	r3, #0
 125 0018 FB73     		strb	r3, [r7, #15]
 126 001a 0AE0     		b	.L2
 127              	.L3:
  76:.\Generated_Source\PSoC5/LCD_BarGraph.c ****     {
  77:.\Generated_Source\PSoC5/LCD_BarGraph.c ****         /* Delay between each write */
  78:.\Generated_Source\PSoC5/LCD_BarGraph.c ****         LCD_WriteData(customData[indexU8]);
 128              		.loc 1 78 0
 129 001c FA7B     		ldrb	r2, [r7, #15]	@ zero_extendqisi2
 130 001e 7B68     		ldr	r3, [r7, #4]
 131 0020 1344     		add	r3, r2, r3
 132 0022 1B78     		ldrb	r3, [r3, #0]	@ zero_extendqisi2
 133 0024 1846     		mov	r0, r3
 134 0026 FFF7FEFF 		bl	LCD_WriteData
 135              		.loc 1 75 0
 136 002a FB7B     		ldrb	r3, [r7, #15]
 137 002c 03F10103 		add	r3, r3, #1
 138 0030 FB73     		strb	r3, [r7, #15]
 139              	.L2:
 140 0032 FB7B     		ldrb	r3, [r7, #15]	@ zero_extendqisi2
 141 0034 3F2B     		cmp	r3, #63
 142 0036 F1D9     		bls	.L3
  79:.\Generated_Source\PSoC5/LCD_BarGraph.c ****     }
  80:.\Generated_Source\PSoC5/LCD_BarGraph.c **** 
  81:.\Generated_Source\PSoC5/LCD_BarGraph.c ****     LCD_IsReady();
 143              		.loc 1 81 0
ARM GAS  C:\Users\meh\AppData\Local\Temp\ccIxgTCX.s 			page 5


 144 0038 FFF7FEFF 		bl	LCD_IsReady
  82:.\Generated_Source\PSoC5/LCD_BarGraph.c ****     LCD_WriteControl(LCD_DDRAM_0);
 145              		.loc 1 82 0
 146 003c 4FF08000 		mov	r0, #128
 147 0040 FFF7FEFF 		bl	LCD_WriteControl
  83:.\Generated_Source\PSoC5/LCD_BarGraph.c **** }
 148              		.loc 1 83 0
 149 0044 07F11007 		add	r7, r7, #16
 150 0048 BD46     		mov	sp, r7
 151 004a 80BD     		pop	{r7, pc}
 152              		.cfi_endproc
 153              	.LFE0:
 154              		.size	LCD_LoadCustomFonts, .-LCD_LoadCustomFonts
 155              		.section	.text.LCD_DrawHorizontalBG,"ax",%progbits
 156              		.align	2
 157              		.global	LCD_DrawHorizontalBG
 158              		.thumb
 159              		.thumb_func
 160              		.type	LCD_DrawHorizontalBG, %function
 161              	LCD_DrawHorizontalBG:
 162              	.LFB1:
  84:.\Generated_Source\PSoC5/LCD_BarGraph.c **** 
  85:.\Generated_Source\PSoC5/LCD_BarGraph.c **** 
  86:.\Generated_Source\PSoC5/LCD_BarGraph.c **** #if (LCD_CUSTOM_CHAR_SET == LCD_HORIZONTAL_BG)
  87:.\Generated_Source\PSoC5/LCD_BarGraph.c **** 
  88:.\Generated_Source\PSoC5/LCD_BarGraph.c ****     /*******************************************************************************
  89:.\Generated_Source\PSoC5/LCD_BarGraph.c ****     * Function Name: LCD_DrawHorizontalBG
  90:.\Generated_Source\PSoC5/LCD_BarGraph.c ****     ********************************************************************************
  91:.\Generated_Source\PSoC5/LCD_BarGraph.c ****     *
  92:.\Generated_Source\PSoC5/LCD_BarGraph.c ****     * Summary:
  93:.\Generated_Source\PSoC5/LCD_BarGraph.c ****     *  Draws the horizontal bargraph.
  94:.\Generated_Source\PSoC5/LCD_BarGraph.c ****     *
  95:.\Generated_Source\PSoC5/LCD_BarGraph.c ****     * Parameters:
  96:.\Generated_Source\PSoC5/LCD_BarGraph.c ****     *  row:            The row in which the bar graph starts.
  97:.\Generated_Source\PSoC5/LCD_BarGraph.c ****     *  column:         The column in which the bar graph starts.
  98:.\Generated_Source\PSoC5/LCD_BarGraph.c ****     *  maxCharacters:  The max length of the graph in whole characters.
  99:.\Generated_Source\PSoC5/LCD_BarGraph.c ****     *  value:          The current length or height of the graph in pixels.
 100:.\Generated_Source\PSoC5/LCD_BarGraph.c ****     *
 101:.\Generated_Source\PSoC5/LCD_BarGraph.c ****     * Return:
 102:.\Generated_Source\PSoC5/LCD_BarGraph.c ****     *  void.
 103:.\Generated_Source\PSoC5/LCD_BarGraph.c ****     *
 104:.\Generated_Source\PSoC5/LCD_BarGraph.c ****     *******************************************************************************/
 105:.\Generated_Source\PSoC5/LCD_BarGraph.c ****     void LCD_DrawHorizontalBG(uint8 row, uint8 column, uint8 maxCharacters, uint8 value) \
 106:.\Generated_Source\PSoC5/LCD_BarGraph.c ****                                                             
 107:.\Generated_Source\PSoC5/LCD_BarGraph.c ****     {
 163              		.loc 1 107 0
 164              		.cfi_startproc
 165              		@ args = 0, pretend = 0, frame = 16
 166              		@ frame_needed = 1, uses_anonymous_args = 0
 167 0000 80B5     		push	{r7, lr}
 168              	.LCFI3:
 169              		.cfi_def_cfa_offset 8
 170 0002 84B0     		sub	sp, sp, #16
 171              	.LCFI4:
 172              		.cfi_def_cfa_offset 24
 173 0004 00AF     		add	r7, sp, #0
 174              		.cfi_offset 14, -4
ARM GAS  C:\Users\meh\AppData\Local\Temp\ccIxgTCX.s 			page 6


 175              		.cfi_offset 7, -8
 176              	.LCFI5:
 177              		.cfi_def_cfa_register 7
 178 0006 F871     		strb	r0, [r7, #7]
 179 0008 B971     		strb	r1, [r7, #6]
 180 000a 7A71     		strb	r2, [r7, #5]
 181 000c 3B71     		strb	r3, [r7, #4]
 108:.\Generated_Source\PSoC5/LCD_BarGraph.c ****         /* 8-bit Counter */
 109:.\Generated_Source\PSoC5/LCD_BarGraph.c ****         uint8 count8;
 110:.\Generated_Source\PSoC5/LCD_BarGraph.c ****         uint8 fullChars;
 111:.\Generated_Source\PSoC5/LCD_BarGraph.c ****         uint8 remainingPixels;
 112:.\Generated_Source\PSoC5/LCD_BarGraph.c **** 
 113:.\Generated_Source\PSoC5/LCD_BarGraph.c ****         /* Number of full characters to draw */
 114:.\Generated_Source\PSoC5/LCD_BarGraph.c ****         fullChars = value / LCD_CHARACTER_WIDTH;
 182              		.loc 1 114 0
 183 000e 3A79     		ldrb	r2, [r7, #4]	@ zero_extendqisi2
 184 0010 4CF6CD43 		movw	r3, #:lower16:-858993459
 185 0014 CCF6CC43 		movt	r3, #:upper16:-858993459
 186 0018 A3FB0213 		umull	r1, r3, r3, r2
 187 001c 4FEA9303 		lsr	r3, r3, #2
 188 0020 BB73     		strb	r3, [r7, #14]
 115:.\Generated_Source\PSoC5/LCD_BarGraph.c **** 
 116:.\Generated_Source\PSoC5/LCD_BarGraph.c ****         /* Number of remaining pixels to draw */
 117:.\Generated_Source\PSoC5/LCD_BarGraph.c ****         remainingPixels = value % LCD_CHARACTER_WIDTH;
 189              		.loc 1 117 0
 190 0022 3A79     		ldrb	r2, [r7, #4]	@ zero_extendqisi2
 191 0024 4CF6CD43 		movw	r3, #:lower16:-858993459
 192 0028 CCF6CC43 		movt	r3, #:upper16:-858993459
 193 002c A3FB0213 		umull	r1, r3, r3, r2
 194 0030 4FEA9301 		lsr	r1, r3, #2
 195 0034 0B46     		mov	r3, r1
 196 0036 4FEA8303 		lsl	r3, r3, #2
 197 003a 0B44     		add	r3, r3, r1
 198 003c C3EB0203 		rsb	r3, r3, r2
 199 0040 FB73     		strb	r3, [r7, #15]
 118:.\Generated_Source\PSoC5/LCD_BarGraph.c **** 
 119:.\Generated_Source\PSoC5/LCD_BarGraph.c ****         /* Ensure that the maximum character limit is followed. */
 120:.\Generated_Source\PSoC5/LCD_BarGraph.c ****         if(fullChars >= maxCharacters)
 200              		.loc 1 120 0
 201 0042 BA7B     		ldrb	r2, [r7, #14]	@ zero_extendqisi2
 202 0044 7B79     		ldrb	r3, [r7, #5]	@ zero_extendqisi2
 203 0046 9A42     		cmp	r2, r3
 204 0048 01D3     		bcc	.L6
 121:.\Generated_Source\PSoC5/LCD_BarGraph.c ****         {
 122:.\Generated_Source\PSoC5/LCD_BarGraph.c ****             fullChars = maxCharacters;
 205              		.loc 1 122 0
 206 004a 7B79     		ldrb	r3, [r7, #5]
 207 004c BB73     		strb	r3, [r7, #14]
 208              	.L6:
 123:.\Generated_Source\PSoC5/LCD_BarGraph.c ****         }
 124:.\Generated_Source\PSoC5/LCD_BarGraph.c **** 
 125:.\Generated_Source\PSoC5/LCD_BarGraph.c ****         /* Put Cursor at start position */
 126:.\Generated_Source\PSoC5/LCD_BarGraph.c ****         LCD_Position(row, column);
 209              		.loc 1 126 0
 210 004e FA79     		ldrb	r2, [r7, #7]	@ zero_extendqisi2
 211 0050 BB79     		ldrb	r3, [r7, #6]	@ zero_extendqisi2
 212 0052 1046     		mov	r0, r2
ARM GAS  C:\Users\meh\AppData\Local\Temp\ccIxgTCX.s 			page 7


 213 0054 1946     		mov	r1, r3
 214 0056 FFF7FEFF 		bl	LCD_Position
 127:.\Generated_Source\PSoC5/LCD_BarGraph.c **** 
 128:.\Generated_Source\PSoC5/LCD_BarGraph.c ****         /* Write full characters */
 129:.\Generated_Source\PSoC5/LCD_BarGraph.c ****         for(count8 = 0u; count8 < fullChars; count8++)
 215              		.loc 1 129 0
 216 005a 4FF00003 		mov	r3, #0
 217 005e 7B73     		strb	r3, [r7, #13]
 218 0060 07E0     		b	.L7
 219              	.L8:
 130:.\Generated_Source\PSoC5/LCD_BarGraph.c ****         {
 131:.\Generated_Source\PSoC5/LCD_BarGraph.c ****             LCD_WriteData(LCD_CUSTOM_5);
 220              		.loc 1 131 0
 221 0062 4FF00500 		mov	r0, #5
 222 0066 FFF7FEFF 		bl	LCD_WriteData
 223              		.loc 1 129 0
 224 006a 7B7B     		ldrb	r3, [r7, #13]
 225 006c 03F10103 		add	r3, r3, #1
 226 0070 7B73     		strb	r3, [r7, #13]
 227              	.L7:
 228 0072 7A7B     		ldrb	r2, [r7, #13]	@ zero_extendqisi2
 229 0074 BB7B     		ldrb	r3, [r7, #14]	@ zero_extendqisi2
 230 0076 9A42     		cmp	r2, r3
 231 0078 F3D3     		bcc	.L8
 132:.\Generated_Source\PSoC5/LCD_BarGraph.c ****         }
 133:.\Generated_Source\PSoC5/LCD_BarGraph.c **** 
 134:.\Generated_Source\PSoC5/LCD_BarGraph.c ****         if(fullChars < maxCharacters)
 232              		.loc 1 134 0
 233 007a BA7B     		ldrb	r2, [r7, #14]	@ zero_extendqisi2
 234 007c 7B79     		ldrb	r3, [r7, #5]	@ zero_extendqisi2
 235 007e 9A42     		cmp	r2, r3
 236 0080 1ED2     		bcs	.L12
 135:.\Generated_Source\PSoC5/LCD_BarGraph.c ****         {
 136:.\Generated_Source\PSoC5/LCD_BarGraph.c ****             /* Write remaining pixels */
 137:.\Generated_Source\PSoC5/LCD_BarGraph.c ****             LCD_WriteData(remainingPixels);
 237              		.loc 1 137 0
 238 0082 FB7B     		ldrb	r3, [r7, #15]	@ zero_extendqisi2
 239 0084 1846     		mov	r0, r3
 240 0086 FFF7FEFF 		bl	LCD_WriteData
 138:.\Generated_Source\PSoC5/LCD_BarGraph.c **** 
 139:.\Generated_Source\PSoC5/LCD_BarGraph.c ****             if(fullChars < (maxCharacters - 1u))
 241              		.loc 1 139 0
 242 008a BA7B     		ldrb	r2, [r7, #14]	@ zero_extendqisi2
 243 008c 7B79     		ldrb	r3, [r7, #5]	@ zero_extendqisi2
 244 008e 03F1FF33 		add	r3, r3, #-1
 245 0092 9A42     		cmp	r2, r3
 246 0094 14D2     		bcs	.L12
 140:.\Generated_Source\PSoC5/LCD_BarGraph.c ****             {
 141:.\Generated_Source\PSoC5/LCD_BarGraph.c ****                 /* Fill with whitespace to end of bar graph */
 142:.\Generated_Source\PSoC5/LCD_BarGraph.c ****                 for(count8 = 0u; count8 < (maxCharacters - fullChars - 1u); count8++)
 247              		.loc 1 142 0
 248 0096 4FF00003 		mov	r3, #0
 249 009a 7B73     		strb	r3, [r7, #13]
 250 009c 07E0     		b	.L10
 251              	.L11:
 143:.\Generated_Source\PSoC5/LCD_BarGraph.c ****                 {
 144:.\Generated_Source\PSoC5/LCD_BarGraph.c ****                     LCD_WriteData(LCD_CUSTOM_0);
ARM GAS  C:\Users\meh\AppData\Local\Temp\ccIxgTCX.s 			page 8


 252              		.loc 1 144 0
 253 009e 4FF00000 		mov	r0, #0
 254 00a2 FFF7FEFF 		bl	LCD_WriteData
 255              		.loc 1 142 0
 256 00a6 7B7B     		ldrb	r3, [r7, #13]
 257 00a8 03F10103 		add	r3, r3, #1
 258 00ac 7B73     		strb	r3, [r7, #13]
 259              	.L10:
 260 00ae 7A7B     		ldrb	r2, [r7, #13]	@ zero_extendqisi2
 261 00b0 7979     		ldrb	r1, [r7, #5]	@ zero_extendqisi2
 262 00b2 BB7B     		ldrb	r3, [r7, #14]	@ zero_extendqisi2
 263 00b4 C3EB0103 		rsb	r3, r3, r1
 264 00b8 03F1FF33 		add	r3, r3, #-1
 265 00bc 9A42     		cmp	r2, r3
 266 00be EED3     		bcc	.L11
 267              	.L12:
 145:.\Generated_Source\PSoC5/LCD_BarGraph.c ****                 }
 146:.\Generated_Source\PSoC5/LCD_BarGraph.c ****             }
 147:.\Generated_Source\PSoC5/LCD_BarGraph.c ****         }
 148:.\Generated_Source\PSoC5/LCD_BarGraph.c ****     }
 268              		.loc 1 148 0
 269 00c0 07F11007 		add	r7, r7, #16
 270 00c4 BD46     		mov	sp, r7
 271 00c6 80BD     		pop	{r7, pc}
 272              		.cfi_endproc
 273              	.LFE1:
 274              		.size	LCD_DrawHorizontalBG, .-LCD_DrawHorizontalBG
 275              		.text
 276              	.Letext0: